target datalayout = "e-m:e-p270:32:32-p271:32:32-p272:64:64-i64:64-i128:128-f80:128-n8:16:32:64-S128"
target triple = "x86_64-pc-linux-gnu"

%union.pthread_mutex_t = type { %struct.__pthread_mutex_s }
%struct.__pthread_mutex_s = type { i32, i32, i32, i32, i32, i16, i16, %struct.__pthread_internal_list }
%struct.__pthread_internal_list = type { ptr, ptr }
%struct.WOLFSSL_SESSION = type { i32, i32, %struct.wolfSSL_RefWithMutex, [32 x i8], i8, ptr, i8, i32, i32, [32 x i8], i8, [48 x i8], i16, i8, i8, i16, [20 x i8], i16, i8 }
%struct.wolfSSL_RefWithMutex = type { %union.pthread_mutex_t, i32 }
%struct.WOLFSSL_BUFFER_INFO = type { ptr, i32 }
%struct.WOLFSSL = type <{ ptr, ptr, ptr, ptr, [48 x i8], [48 x i8], ptr, ptr, ptr, ptr, ptr, ptr, ptr, ptr, ptr, ptr, ptr, ptr, ptr, i32, [4 x i8], %struct.WOLFSSL_CIPHER, ptr, %struct.Ciphers, %struct.Ciphers, [8 x i8], %struct.Buffers, ptr, ptr, %struct.WOLFSSL_ALERT_HISTORY, %struct.WOLFSSL_ALERT, i32, i32, i32, i32, i32, i32, i32, i16, [2 x i8], i32, i8, %struct.RecordLayerHeader, %struct.MsgsReceived, %struct.ProtocolVersion, %struct.ProtocolVersion, %struct.CipherSpecs, [2 x i8], %struct.Keys, %struct.Options, ptr, i8, i8, i16, [10 x i16], i8, i8, i16, i16, [38 x i8], i32, i32, [4 x i8], ptr, i8, i8, [6 x i8], ptr, ptr, i16, i8, i8, i32, i8, [3 x i8], i32, %struct.OneTimeAuth, ptr }>
%struct.WOLFSSL_CIPHER = type { i8, i8, ptr }
%struct.Ciphers = type { ptr, ptr, ptr, ptr, i8, i8 }
%struct.Buffers = type { %struct.bufferStatic, %struct.bufferStatic, %struct.WOLFSSL_BUFFER_INFO, %struct.WOLFSSL_BUFFER_INFO, %struct.WOLFSSL_BUFFER_INFO, %struct.WOLFSSL_BUFFER_INFO, i32, i32, i8, i8, i8, i8, %struct.WOLFSSL_BUFFER_INFO, %struct.WOLFSSL_BUFFER_INFO, %struct.WOLFSSL_BUFFER_INFO, %struct.WOLFSSL_BUFFER_INFO, ptr, ptr, ptr, i8, i8, i32, i32, ptr, i32, [1 x ptr] }
%struct.bufferStatic = type { [5 x i8], ptr, i32, i32, i32, i8, i8 }
%struct.WOLFSSL_ALERT_HISTORY = type { %struct.WOLFSSL_ALERT, %struct.WOLFSSL_ALERT }
%struct.WOLFSSL_ALERT = type { i32, i32 }
%struct.RecordLayerHeader = type { i8, i8, i8, [2 x i8] }
%struct.MsgsReceived = type { i32 }
%struct.ProtocolVersion = type { i8, i8 }
%struct.CipherSpecs = type { i16, i16, i16, i16, i8, i8, i8, i8, i8, i8, i8, i8 }
%struct.Keys = type { [64 x i8], [64 x i8], [32 x i8], [32 x i8], [16 x i8], [16 x i8], [8 x i8], [12 x i8], [12 x i8], i32, i32, i32, i32, i32, i32, i8, i8, i8, i8 }
%struct.Options = type { i64, i64, i8, i8, i8, i8, i8, i8, i8, i8, i8, i8, i8, i8, i8, i8, i8, i8, i8, i8, i8, i8, i8, i16, i16, i16, i16, i16, i8 }
%struct.OneTimeAuth = type { ptr, i8 }

; Function Attrs: nounwind uwtable
define internal i32 @SslSessionCacheOff(ptr noundef %0, ptr noundef %1) #0 {
  %3 = alloca ptr, align 8
  %4 = alloca ptr, align 8
  store ptr %0, ptr %3, align 8, !tbaa !61
  store ptr %1, ptr %4, align 8, !tbaa !53
  %5 = load ptr, ptr %3, align 8, !tbaa !61
  %6 = getelementptr inbounds nuw %struct.WOLFSSL, ptr %5, i32 0, i32 49
  %7 = getelementptr inbounds nuw %struct.Options, ptr %6, i32 0, i32 1
  %8 = load i64, ptr %7, align 8
  %9 = lshr i64 %8, 2
  %10 = and i64 %9, 1
  %11 = trunc i64 %10 to i16
  %12 = zext i16 %11 to i32
  ret i32 %12
}

; Function Attrs: nounwind uwtable
define void @AddSession(ptr noundef %0) #0 {
  %2 = alloca ptr, align 8
  %3 = alloca i32, align 4
  %4 = alloca ptr, align 8
  %5 = alloca i8, align 1
  %6 = alloca ptr, align 8
  %7 = alloca i32, align 4
  %8 = alloca ptr, align 8
  store ptr %0, ptr %2, align 8, !tbaa !61
  call void @llvm.lifetime.start.p0(i64 4, ptr %3) #9
  store i32 0, ptr %3, align 4, !tbaa !7
  call void @llvm.lifetime.start.p0(i64 8, ptr %4) #9
  store ptr null, ptr %4, align 8, !tbaa !21
  call void @llvm.lifetime.start.p0(i64 1, ptr %5) #9
  store i8 0, ptr %5, align 1, !tbaa !20
  call void @llvm.lifetime.start.p0(i64 8, ptr %6) #9
  %9 = load ptr, ptr %2, align 8, !tbaa !61
  %10 = getelementptr inbounds nuw %struct.WOLFSSL, ptr %9, i32 0, i32 27
  %11 = load ptr, ptr %10, align 16, !tbaa !89
  store ptr %11, ptr %6, align 8, !tbaa !53
  br label %12

12:                                               ; preds = %1
  br label %13

13:                                               ; preds = %12
  br label %14

14:                                               ; preds = %13
  %15 = load ptr, ptr %2, align 8, !tbaa !61
  %16 = load ptr, ptr %6, align 8, !tbaa !53
  %17 = call i32 @SslSessionCacheOff(ptr noundef %15, ptr noundef %16)
  %18 = icmp ne i32 %17, 0
  br i1 %18, label %19, label %23

19:                                               ; preds = %14
  br label %20

20:                                               ; preds = %19
  br label %21

21:                                               ; preds = %20
  br label %22

22:                                               ; preds = %21
  store i32 1, ptr %7, align 4
  br label %120

23:                                               ; preds = %14
  %24 = load ptr, ptr %6, align 8, !tbaa !53
  %25 = getelementptr inbounds nuw %struct.WOLFSSL_SESSION, ptr %24, i32 0, i32 4
  %26 = load i8, ptr %25, align 8
  %27 = and i8 %26, 1
  %28 = icmp ne i8 %27, 0
  br i1 %28, label %29, label %33

29:                                               ; preds = %23
  %30 = load ptr, ptr %6, align 8, !tbaa !53
  %31 = getelementptr inbounds nuw %struct.WOLFSSL_SESSION, ptr %30, i32 0, i32 3
  %32 = getelementptr inbounds [32 x i8], ptr %31, i64 0, i64 0
  store ptr %32, ptr %4, align 8, !tbaa !21
  store i8 32, ptr %5, align 1, !tbaa !20
  br label %40

33:                                               ; preds = %23
  %34 = load ptr, ptr %6, align 8, !tbaa !53
  %35 = getelementptr inbounds nuw %struct.WOLFSSL_SESSION, ptr %34, i32 0, i32 9
  %36 = getelementptr inbounds [32 x i8], ptr %35, i64 0, i64 0
  store ptr %36, ptr %4, align 8, !tbaa !21
  %37 = load ptr, ptr %6, align 8, !tbaa !53
  %38 = getelementptr inbounds nuw %struct.WOLFSSL_SESSION, ptr %37, i32 0, i32 10
  %39 = load i8, ptr %38, align 4, !tbaa !55
  store i8 %39, ptr %5, align 1, !tbaa !20
  br label %40

40:                                               ; preds = %33, %29
  %41 = load i8, ptr %5, align 1, !tbaa !20
  %42 = zext i8 %41 to i32
  %43 = icmp eq i32 %42, 0
  br i1 %43, label %44, label %89

44:                                               ; preds = %40
  %45 = load ptr, ptr %2, align 8, !tbaa !61
  %46 = getelementptr inbounds nuw %struct.WOLFSSL, ptr %45, i32 0, i32 49
  %47 = getelementptr inbounds nuw %struct.Options, ptr %46, i32 0, i32 1
  %48 = load i64, ptr %47, align 8
  %49 = lshr i64 %48, 4
  %50 = and i64 %49, 3
  %51 = trunc i64 %50 to i16
  %52 = zext i16 %51 to i32
  %53 = icmp eq i32 %52, 1
  br i1 %53, label %54, label %89

54:                                               ; preds = %44
  call void @llvm.lifetime.start.p0(i64 8, ptr %8) #9
  store ptr null, ptr %8, align 8, !tbaa !132
  %55 = load ptr, ptr %2, align 8, !tbaa !61
  %56 = getelementptr inbounds nuw %struct.WOLFSSL, ptr %55, i32 0, i32 9
  %57 = load ptr, ptr %56, align 8, !tbaa !133
  %58 = icmp ne ptr %57, null
  br i1 %58, label %59, label %63

59:                                               ; preds = %54
  %60 = load ptr, ptr %2, align 8, !tbaa !61
  %61 = getelementptr inbounds nuw %struct.WOLFSSL, ptr %60, i32 0, i32 9
  %62 = load ptr, ptr %61, align 8, !tbaa !133
  store ptr %62, ptr %8, align 8, !tbaa !132
  br label %63

63:                                               ; preds = %59, %54
  %64 = load ptr, ptr %8, align 8, !tbaa !132
  %65 = load ptr, ptr %2, align 8, !tbaa !61
  %66 = getelementptr inbounds nuw %struct.WOLFSSL, ptr %65, i32 0, i32 27
  %67 = load ptr, ptr %66, align 16, !tbaa !89
  %68 = getelementptr inbounds nuw %struct.WOLFSSL_SESSION, ptr %67, i32 0, i32 3
  %69 = getelementptr inbounds [32 x i8], ptr %68, i64 0, i64 0
  %70 = call i32 @wc_RNG_GenerateBlock(ptr noundef %64, ptr noundef %69, i32 noundef 32)
  %71 = icmp ne i32 %70, 0
  br i1 %71, label %72, label %73

72:                                               ; preds = %63
  store i32 1, ptr %7, align 4
  br label %86

73:                                               ; preds = %63
  %74 = load ptr, ptr %2, align 8, !tbaa !61
  %75 = getelementptr inbounds nuw %struct.WOLFSSL, ptr %74, i32 0, i32 27
  %76 = load ptr, ptr %75, align 16, !tbaa !89
  %77 = getelementptr inbounds nuw %struct.WOLFSSL_SESSION, ptr %76, i32 0, i32 4
  %78 = load i8, ptr %77, align 8
  %79 = and i8 %78, -2
  %80 = or i8 %79, 1
  store i8 %80, ptr %77, align 8
  %81 = load ptr, ptr %2, align 8, !tbaa !61
  %82 = getelementptr inbounds nuw %struct.WOLFSSL, ptr %81, i32 0, i32 27
  %83 = load ptr, ptr %82, align 16, !tbaa !89
  %84 = getelementptr inbounds nuw %struct.WOLFSSL_SESSION, ptr %83, i32 0, i32 3
  %85 = getelementptr inbounds [32 x i8], ptr %84, i64 0, i64 0
  store ptr %85, ptr %4, align 8, !tbaa !21
  store i8 32, ptr %5, align 1, !tbaa !20
  store i32 0, ptr %7, align 4
  br label %86

86:                                               ; preds = %73, %72
  call void @llvm.lifetime.end.p0(i64 8, ptr %8) #9
  %87 = load i32, ptr %7, align 4
  switch i32 %87, label %120 [
    i32 0, label %88
  ]

88:                                               ; preds = %86
  br label %89

89:                                               ; preds = %88, %44, %40
  %90 = load ptr, ptr %2, align 8, !tbaa !61
  %91 = getelementptr inbounds nuw %struct.WOLFSSL, ptr %90, i32 0, i32 0
  %92 = load ptr, ptr %91, align 16, !tbaa !90
  %93 = load ptr, ptr %6, align 8, !tbaa !53
  %94 = load ptr, ptr %4, align 8, !tbaa !21
  %95 = load i8, ptr %5, align 1, !tbaa !20
  %96 = load ptr, ptr %2, align 8, !tbaa !61
  %97 = getelementptr inbounds nuw %struct.WOLFSSL, ptr %96, i32 0, i32 49
  %98 = getelementptr inbounds nuw %struct.Options, ptr %97, i32 0, i32 1
  %99 = load i64, ptr %98, align 8
  %100 = lshr i64 %99, 4
  %101 = and i64 %100, 3
  %102 = trunc i64 %101 to i16
  %103 = zext i16 %102 to i32
  %104 = load ptr, ptr %2, align 8, !tbaa !61
  %105 = getelementptr inbounds nuw %struct.WOLFSSL, ptr %104, i32 0, i32 49
  %106 = getelementptr inbounds nuw %struct.Options, ptr %105, i32 0, i32 1
  %107 = load i64, ptr %106, align 8
  %108 = lshr i64 %107, 4
  %109 = and i64 %108, 3
  %110 = trunc i64 %109 to i16
  %111 = zext i16 %110 to i32
  %112 = icmp eq i32 %111, 1
  br i1 %112, label %113, label %116

113:                                              ; preds = %89
  %114 = load ptr, ptr %2, align 8, !tbaa !61
  %115 = getelementptr inbounds nuw %struct.WOLFSSL, ptr %114, i32 0, i32 28
  br label %117

116:                                              ; preds = %89
  br label %117

117:                                              ; preds = %116, %113
  %118 = phi ptr [ %115, %113 ], [ null, %116 ]
  %119 = call i32 @AddSessionToCache(ptr noundef %92, ptr noundef %93, ptr noundef %94, i8 noundef zeroext %95, ptr noundef null, i32 noundef %103, i16 noundef zeroext 0, ptr noundef %118)
  store i32 0, ptr %7, align 4
  br label %120

120:                                              ; preds = %117, %86, %22
  call void @llvm.lifetime.end.p0(i64 8, ptr %6) #9
  call void @llvm.lifetime.end.p0(i64 1, ptr %5) #9
  call void @llvm.lifetime.end.p0(i64 8, ptr %4) #9
  call void @llvm.lifetime.end.p0(i64 4, ptr %3) #9
  %121 = load i32, ptr %7, align 4
  switch i32 %121, label %123 [
    i32 0, label %122
    i32 1, label %122
  ]

122:                                              ; preds = %120, %120
  ret void

123:                                              ; preds = %120
  unreachable
}