; Function Attrs: nounwind uwtable
define void @AddSession(ptr noundef captures(address_is_null) %0) local_unnamed_addr #0 {
  %2 = getelementptr inbounds nuw i8, ptr %0, i64 624
  %3 = load ptr, ptr %2, align 16, !tbaa !76
  %4 = getelementptr i8, ptr %0, i64 1024
  %.val = load i64, ptr %4, align 8
  %5 = and i64 %.val, 4
  %.not = icmp eq i64 %5, 0
  br i1 %.not, label %6, label %39

6:                                                ; preds = %1
  %7 = getelementptr inbounds nuw i8, ptr %3, i64 88
  %8 = load i8, ptr %7, align 8
  %9 = and i8 %8, 1
  %.not28 = icmp eq i8 %9, 0
  br i1 %.not28, label %11, label %.thread

.thread:                                          ; preds = %6
  %10 = getelementptr inbounds nuw i8, ptr %3, i64 56
  br label %30

11:                                               ; preds = %6
  %12 = getelementptr inbounds nuw i8, ptr %3, i64 116
  %13 = getelementptr inbounds nuw i8, ptr %3, i64 148
  %14 = load i8, ptr %13, align 4, !tbaa !77
  %15 = icmp eq i8 %14, 0
  br i1 %15, label %16, label %30

16:                                               ; preds = %11
  %17 = and i64 %.val, 48
  %18 = icmp eq i64 %17, 16
  br i1 %18, label %19, label %30

19:                                               ; preds = %16
  %20 = getelementptr inbounds nuw i8, ptr %0, i64 152
  %21 = load ptr, ptr %20, align 8, !tbaa !113
  %22 = getelementptr inbounds nuw i8, ptr %3, i64 56
  %23 = tail call i32 @wc_RNG_GenerateBlock(ptr noundef %21, ptr noundef nonnull %22, i32 noundef 32) #22
  %.not30 = icmp eq i32 %23, 0
  br i1 %.not30, label %.thread33, label %39

.thread33:                                        ; preds = %19
  %24 = load ptr, ptr %2, align 16, !tbaa !76
  %25 = getelementptr inbounds nuw i8, ptr %24, i64 88
  %26 = load i8, ptr %25, align 8
  %27 = or i8 %26, 1
  store i8 %27, ptr %25, align 8
  %28 = load ptr, ptr %2, align 16, !tbaa !76
  %29 = getelementptr inbounds nuw i8, ptr %28, i64 56
  %.pre = load i64, ptr %4, align 8
  br label %30

30:                                               ; preds = %.thread33, %.thread, %16, %11
  %31 = phi i64 [ %.val, %16 ], [ %.val, %11 ], [ %.val, %.thread ], [ %.pre, %.thread33 ]
  %.125 = phi i8 [ 0, %16 ], [ %14, %11 ], [ 32, %.thread ], [ 32, %.thread33 ]
  %.1 = phi ptr [ %12, %16 ], [ %12, %11 ], [ %10, %.thread ], [ %29, %.thread33 ]
  %32 = trunc i64 %31 to i32
  %33 = lshr i32 %32, 4
  %34 = and i32 %33, 3
  %35 = icmp eq i32 %34, 1
  %36 = getelementptr inbounds nuw i8, ptr %0, i64 632
  %37 = select i1 %35, ptr %36, ptr null
  %38 = tail call i32 @AddSessionToCache(ptr poison, ptr noundef nonnull %3, ptr noundef nonnull %.1, i8 noundef zeroext %.125, ptr poison, i32 noundef %34, i16 noundef zeroext 0, ptr noundef %37)
  br label %39

39:                                               ; preds = %19, %1, %30
  ret void
}